target datalayout = "e-m:e-p270:32:32-p271:32:32-p272:64:64-i64:64-i128:128-f80:128-n8:16:32:64-S128"
target triple = "x86_64-pc-linux-gnu"

@__const.h5tools_print_fill_value.dims = private unnamed_addr constant [1 x i64] [i64 1], align 8

; Function Attrs: nounwind uwtable
define void @h5tools_print_fill_value(ptr noundef %0, ptr noundef %1, ptr noundef %2, i64 noundef %3, i64 noundef %4, i64 noundef %5) #0 {
  %7 = alloca ptr, align 8
  %8 = alloca ptr, align 8
  %9 = alloca ptr, align 8
  %10 = alloca i64, align 8
  %11 = alloca i64, align 8
  %12 = alloca i64, align 8
  %13 = alloca i64, align 8
  %14 = alloca i64, align 8
  %15 = alloca ptr, align 8
  %16 = alloca i8, align 1
  %17 = alloca [1 x i64], align 8
  %18 = alloca i64, align 8
  store ptr %0, ptr %7, align 8, !tbaa !35
  store ptr %1, ptr %8, align 8, !tbaa !10
  store ptr %2, ptr %9, align 8, !tbaa !12
  store i64 %3, ptr %10, align 8, !tbaa !14
  store i64 %4, ptr %11, align 8, !tbaa !14
  store i64 %5, ptr %12, align 8, !tbaa !14
  call void @llvm.lifetime.start.p0(i64 8, ptr %13) #10
  call void @llvm.lifetime.start.p0(i64 8, ptr %14) #10
  store i64 -1, ptr %14, align 8, !tbaa !14
  call void @llvm.lifetime.start.p0(i64 8, ptr %15) #10
  store ptr null, ptr %15, align 8, !tbaa !18
  call void @llvm.lifetime.start.p0(i64 1, ptr %16) #10
  store i8 0, ptr %16, align 1, !tbaa !21
  %19 = load i64, ptr %11, align 8, !tbaa !14
  %20 = call i64 @H5Tget_native_type(i64 noundef %19, i32 noundef 0)
  store i64 %20, ptr %14, align 8, !tbaa !14
  %21 = load i64, ptr %11, align 8, !tbaa !14
  %22 = call i32 @h5tools_detect_vlen(i64 noundef %21)
  %23 = icmp eq i32 %22, 1
  br i1 %23, label %24, label %25

24:                                               ; preds = %6
  store i8 1, ptr %16, align 1, !tbaa !21
  br label %25

25:                                               ; preds = %24, %6
  %26 = load i64, ptr %14, align 8, !tbaa !14
  %27 = call i64 @H5Tget_size(i64 noundef %26)
  store i64 %27, ptr %13, align 8, !tbaa !14
  %28 = load i64, ptr %13, align 8, !tbaa !14
  %29 = call noalias ptr @malloc(i64 noundef %28) #13
  store ptr %29, ptr %15, align 8, !tbaa !18
  %30 = load i64, ptr %10, align 8, !tbaa !14
  %31 = load i64, ptr %14, align 8, !tbaa !14
  %32 = load ptr, ptr %15, align 8, !tbaa !18
  %33 = call i32 @H5Pget_fill_value(i64 noundef %30, i64 noundef %31, ptr noundef %32)
  %34 = load ptr, ptr %7, align 8, !tbaa !35
  %35 = load ptr, ptr %8, align 8, !tbaa !10
  %36 = load i64, ptr %12, align 8, !tbaa !14
  %37 = load i64, ptr %14, align 8, !tbaa !14
  %38 = load ptr, ptr %15, align 8, !tbaa !18
  %39 = load ptr, ptr %9, align 8, !tbaa !12
  %40 = call ptr @h5tools_str_sprint(ptr noundef %34, ptr noundef %35, i64 noundef %36, i64 noundef %37, ptr noundef %38, ptr noundef %39)
  %41 = load i64, ptr %14, align 8, !tbaa !14
  %42 = call i32 @H5Tclose(i64 noundef %41)
  %43 = load i8, ptr %16, align 1, !tbaa !21, !range !30, !noundef !31
  %44 = trunc i8 %43 to i1
  br i1 %44, label %45, label %54

45:                                               ; preds = %25
  call void @llvm.lifetime.start.p0(i64 8, ptr %17) #10
  call void @llvm.memcpy.p0.p0.i64(ptr align 8 %17, ptr align 8 @__const.h5tools_print_fill_value.dims, i64 8, i1 false)
  call void @llvm.lifetime.start.p0(i64 8, ptr %18) #10
  store i64 -1, ptr %18, align 8, !tbaa !14
  %46 = getelementptr inbounds [1 x i64], ptr %17, i64 0, i64 0
  %47 = call i64 @H5Screate_simple(i32 noundef 1, ptr noundef %46, ptr noundef null)
  store i64 %47, ptr %18, align 8, !tbaa !14
  %48 = load i64, ptr %11, align 8, !tbaa !14
  %49 = load i64, ptr %18, align 8, !tbaa !14
  %50 = load ptr, ptr %15, align 8, !tbaa !18
  %51 = call i32 @H5Treclaim(i64 noundef %48, i64 noundef %49, i64 noundef 0, ptr noundef %50)
  %52 = load i64, ptr %18, align 8, !tbaa !14
  %53 = call i32 @H5Sclose(i64 noundef %52)
  call void @llvm.lifetime.end.p0(i64 8, ptr %18) #10
  call void @llvm.lifetime.end.p0(i64 8, ptr %17) #10
  br label %54

54:                                               ; preds = %45, %25
  %55 = load ptr, ptr %15, align 8, !tbaa !18
  %56 = icmp ne ptr %55, null
  br i1 %56, label %57, label %59

57:                                               ; preds = %54
  %58 = load ptr, ptr %15, align 8, !tbaa !18
  call void @free(ptr noundef %58) #10
  br label %59

59:                                               ; preds = %57, %54
  call void @llvm.lifetime.end.p0(i64 1, ptr %16) #10
  call void @llvm.lifetime.end.p0(i64 8, ptr %15) #10
  call void @llvm.lifetime.end.p0(i64 8, ptr %14) #10
  call void @llvm.lifetime.end.p0(i64 8, ptr %13) #10
  ret void
}