; Function Attrs: nounwind uwtable
define void @h5tools_print_fill_value(ptr noundef %0, ptr noundef %1, ptr noundef %2, i64 noundef %3, i64 noundef %4, i64 noundef %5) local_unnamed_addr #1 {
  %7 = alloca [1 x i64], align 8
  %8 = tail call i64 @H5Tget_native_type(i64 noundef %4, i32 noundef 0) #12
  %9 = tail call i32 @h5tools_detect_vlen(i64 noundef %4) #12
  %10 = icmp eq i32 %9, 1
  %11 = tail call i64 @H5Tget_size(i64 noundef %8) #12
  %12 = tail call noalias ptr @malloc(i64 noundef %11) #15
  %13 = tail call i32 @H5Pget_fill_value(i64 noundef %3, i64 noundef %8, ptr noundef %12) #12
  %14 = tail call ptr @h5tools_str_sprint(ptr noundef %0, ptr noundef %1, i64 noundef %5, i64 noundef %8, ptr noundef %12, ptr noundef %2) #12
  %15 = tail call i32 @H5Tclose(i64 noundef %8) #12
  br i1 %10, label %16, label %20

16:                                               ; preds = %6
  call void @llvm.lifetime.start.p0(i64 8, ptr nonnull %7) #12
  store i64 1, ptr %7, align 8
  %17 = call i64 @H5Screate_simple(i32 noundef 1, ptr noundef nonnull %7, ptr noundef null) #12
  %18 = call i32 @H5Treclaim(i64 noundef %4, i64 noundef %17, i64 noundef 0, ptr noundef %12) #12
  %19 = call i32 @H5Sclose(i64 noundef %17) #12
  call void @llvm.lifetime.end.p0(i64 8, ptr nonnull %7) #12
  br label %20

20:                                               ; preds = %16, %6
  %.not = icmp eq ptr %12, null
  br i1 %.not, label %22, label %21

21:                                               ; preds = %20
  call void @free(ptr noundef nonnull %12) #12
  br label %22

22:                                               ; preds = %21, %20
  ret void
}